target datalayout = "e-m:e-p270:32:32-p271:32:32-p272:64:64-i64:64-i128:128-f80:128-n8:16:32:64-S128"
target triple = "x86_64-pc-linux-gnu"

%struct.Ivy_Man_t_ = type { ptr, ptr, ptr, ptr, ptr, %struct.Ivy_Obj_t_, [8 x i32], i32, i32, ptr, i32, i32, i32, i32, ptr, i32, ptr, ptr, ptr, i32, ptr, ptr, ptr, i64, i64 }
%struct.Ivy_Obj_t_ = type { i32, i32, i32, i32, ptr, ptr, ptr, ptr, ptr, ptr, ptr, ptr }

; Function Attrs: inlinehint nounwind uwtable
define internal i32 @Ivy_ObjRefs(ptr noundef %0) #1 {
  %2 = alloca ptr, align 8
  store ptr %0, ptr %2, align 8, !tbaa !8
  %3 = load ptr, ptr %2, align 8, !tbaa !8
  %4 = getelementptr inbounds nuw %struct.Ivy_Obj_t_, ptr %3, i32 0, i32 3
  %5 = load i32, ptr %4, align 4, !tbaa !42
  ret i32 %5
}

; Function Attrs: inlinehint nounwind uwtable
define internal i32 @Ivy_ObjIsConst1(ptr noundef %0) #1 {
  %2 = alloca ptr, align 8
  store ptr %0, ptr %2, align 8, !tbaa !8
  %3 = load ptr, ptr %2, align 8, !tbaa !8
  %4 = getelementptr inbounds nuw %struct.Ivy_Obj_t_, ptr %3, i32 0, i32 0
  %5 = load i32, ptr %4, align 8, !tbaa !18
  %6 = icmp eq i32 %5, 0
  %7 = zext i1 %6 to i32
  ret i32 %7
}

; Function Attrs: inlinehint nounwind uwtable
define internal i32 @Ivy_ObjIsPi(ptr noundef %0) #1 {
  %2 = alloca ptr, align 8
  store ptr %0, ptr %2, align 8, !tbaa !8
  %3 = load ptr, ptr %2, align 8, !tbaa !8
  %4 = getelementptr inbounds nuw %struct.Ivy_Obj_t_, ptr %3, i32 0, i32 2
  %5 = load i32, ptr %4, align 8
  %6 = and i32 %5, 15
  %7 = icmp eq i32 %6, 1
  %8 = zext i1 %7 to i32
  ret i32 %8
}

; Function Attrs: inlinehint nounwind uwtable
define internal void @Ivy_ObjRefsInc(ptr noundef %0) #1 {
  %2 = alloca ptr, align 8
  store ptr %0, ptr %2, align 8, !tbaa !8
  %3 = load ptr, ptr %2, align 8, !tbaa !8
  %4 = getelementptr inbounds nuw %struct.Ivy_Obj_t_, ptr %3, i32 0, i32 3
  %5 = load i32, ptr %4, align 4, !tbaa !42
  %6 = add nsw i32 %5, 1
  store i32 %6, ptr %4, align 4, !tbaa !42
  ret void
}

; Function Attrs: inlinehint nounwind uwtable
define internal void @Ivy_ObjRefsDec(ptr noundef %0) #1 {
  %2 = alloca ptr, align 8
  store ptr %0, ptr %2, align 8, !tbaa !8
  %3 = load ptr, ptr %2, align 8, !tbaa !8
  %4 = getelementptr inbounds nuw %struct.Ivy_Obj_t_, ptr %3, i32 0, i32 3
  %5 = load i32, ptr %4, align 4, !tbaa !42
  %6 = add nsw i32 %5, -1
  store i32 %6, ptr %4, align 4, !tbaa !42
  ret void
}

; Function Attrs: inlinehint nounwind uwtable
define internal ptr @Ivy_Regular(ptr noundef %0) #1 {
  %2 = alloca ptr, align 8
  store ptr %0, ptr %2, align 8, !tbaa !8
  %3 = load ptr, ptr %2, align 8, !tbaa !8
  %4 = ptrtoint ptr %3 to i64
  %5 = and i64 %4, -2
  %6 = inttoptr i64 %5 to ptr
  ret ptr %6
}

; Function Attrs: inlinehint nounwind uwtable
define internal i32 @Ivy_ObjInit(ptr noundef %0) #1 {
  %2 = alloca ptr, align 8
  store ptr %0, ptr %2, align 8, !tbaa !8
  %3 = load ptr, ptr %2, align 8, !tbaa !8
  %4 = getelementptr inbounds nuw %struct.Ivy_Obj_t_, ptr %3, i32 0, i32 2
  %5 = load i32, ptr %4, align 8
  %6 = lshr i32 %5, 9
  %7 = and i32 %6, 3
  ret i32 %7
}

; Function Attrs: inlinehint nounwind uwtable
define internal i32 @Ivy_ObjIsLatch(ptr noundef %0) #1 {
  %2 = alloca ptr, align 8
  store ptr %0, ptr %2, align 8, !tbaa !8
  %3 = load ptr, ptr %2, align 8, !tbaa !8
  %4 = getelementptr inbounds nuw %struct.Ivy_Obj_t_, ptr %3, i32 0, i32 2
  %5 = load i32, ptr %4, align 8
  %6 = and i32 %5, 15
  %7 = icmp eq i32 %6, 4
  %8 = zext i1 %7 to i32
  ret i32 %8
}

; Function Attrs: inlinehint nounwind uwtable
define internal i32 @Ivy_ObjType(ptr noundef %0) #1 {
  %2 = alloca ptr, align 8
  store ptr %0, ptr %2, align 8, !tbaa !8
  %3 = load ptr, ptr %2, align 8, !tbaa !8
  %4 = getelementptr inbounds nuw %struct.Ivy_Obj_t_, ptr %3, i32 0, i32 2
  %5 = load i32, ptr %4, align 8
  %6 = and i32 %5, 15
  ret i32 %6
}

; Function Attrs: inlinehint nounwind uwtable
define internal i32 @Ivy_ObjIsNode(ptr noundef %0) #1 {
  %2 = alloca ptr, align 8
  store ptr %0, ptr %2, align 8, !tbaa !8
  %3 = load ptr, ptr %2, align 8, !tbaa !8
  %4 = getelementptr inbounds nuw %struct.Ivy_Obj_t_, ptr %3, i32 0, i32 2
  %5 = load i32, ptr %4, align 8
  %6 = and i32 %5, 15
  %7 = icmp eq i32 %6, 5
  br i1 %7, label %14, label %8

8:                                                ; preds = %1
  %9 = load ptr, ptr %2, align 8, !tbaa !8
  %10 = getelementptr inbounds nuw %struct.Ivy_Obj_t_, ptr %9, i32 0, i32 2
  %11 = load i32, ptr %10, align 8
  %12 = and i32 %11, 15
  %13 = icmp eq i32 %12, 6
  br label %14

14:                                               ; preds = %8, %1
  %15 = phi i1 [ true, %1 ], [ %13, %8 ]
  %16 = zext i1 %15 to i32
  ret i32 %16
}

; Function Attrs: inlinehint nounwind uwtable
define internal ptr @Ivy_ObjChild1(ptr noundef %0) #1 {
  %2 = alloca ptr, align 8
  store ptr %0, ptr %2, align 8, !tbaa !8
  %3 = load ptr, ptr %2, align 8, !tbaa !8
  %4 = getelementptr inbounds nuw %struct.Ivy_Obj_t_, ptr %3, i32 0, i32 5
  %5 = load ptr, ptr %4, align 8, !tbaa !20
  ret ptr %5
}

; Function Attrs: inlinehint nounwind uwtable
define internal ptr @Ivy_ObjFanin1(ptr noundef %0) #1 {
  %2 = alloca ptr, align 8
  store ptr %0, ptr %2, align 8, !tbaa !8
  %3 = load ptr, ptr %2, align 8, !tbaa !8
  %4 = getelementptr inbounds nuw %struct.Ivy_Obj_t_, ptr %3, i32 0, i32 5
  %5 = load ptr, ptr %4, align 8, !tbaa !20
  %6 = call ptr @Ivy_Regular(ptr noundef %5)
  ret ptr %6
}

; Function Attrs: nounwind uwtable
define void @Ivy_ObjPatchFanin0(ptr noundef %0, ptr noundef %1, ptr noundef %2) #0 {
  %4 = alloca ptr, align 8
  %5 = alloca ptr, align 8
  %6 = alloca ptr, align 8
  %7 = alloca ptr, align 8
  store ptr %0, ptr %4, align 8, !tbaa !3
  store ptr %1, ptr %5, align 8, !tbaa !8
  store ptr %2, ptr %6, align 8, !tbaa !8
  call void @llvm.lifetime.start.p0(i64 8, ptr %7) #8
  %8 = load ptr, ptr %5, align 8, !tbaa !8
  %9 = call ptr @Ivy_ObjFanin0(ptr noundef %8)
  store ptr %9, ptr %7, align 8, !tbaa !8
  %10 = load ptr, ptr %7, align 8, !tbaa !8
  call void @Ivy_ObjRefsDec(ptr noundef %10)
  %11 = load ptr, ptr %4, align 8, !tbaa !3
  %12 = getelementptr inbounds nuw %struct.Ivy_Man_t_, ptr %11, i32 0, i32 15
  %13 = load i32, ptr %12, align 8, !tbaa !34
  %14 = icmp ne i32 %13, 0
  br i1 %14, label %15, label %19

15:                                               ; preds = %3
  %16 = load ptr, ptr %4, align 8, !tbaa !3
  %17 = load ptr, ptr %7, align 8, !tbaa !8
  %18 = load ptr, ptr %5, align 8, !tbaa !8
  call void @Ivy_ObjDeleteFanout(ptr noundef %16, ptr noundef %17, ptr noundef %18)
  br label %19

19:                                               ; preds = %15, %3
  %20 = load ptr, ptr %6, align 8, !tbaa !8
  %21 = load ptr, ptr %5, align 8, !tbaa !8
  %22 = getelementptr inbounds nuw %struct.Ivy_Obj_t_, ptr %21, i32 0, i32 4
  store ptr %20, ptr %22, align 8, !tbaa !19
  %23 = load ptr, ptr %6, align 8, !tbaa !8
  %24 = call ptr @Ivy_Regular(ptr noundef %23)
  call void @Ivy_ObjRefsInc(ptr noundef %24)
  %25 = load ptr, ptr %4, align 8, !tbaa !3
  %26 = getelementptr inbounds nuw %struct.Ivy_Man_t_, ptr %25, i32 0, i32 15
  %27 = load i32, ptr %26, align 8, !tbaa !34
  %28 = icmp ne i32 %27, 0
  br i1 %28, label %29, label %34

29:                                               ; preds = %19
  %30 = load ptr, ptr %4, align 8, !tbaa !3
  %31 = load ptr, ptr %6, align 8, !tbaa !8
  %32 = call ptr @Ivy_Regular(ptr noundef %31)
  %33 = load ptr, ptr %5, align 8, !tbaa !8
  call void @Ivy_ObjAddFanout(ptr noundef %30, ptr noundef %32, ptr noundef %33)
  br label %34

34:                                               ; preds = %29, %19
  %35 = load ptr, ptr %7, align 8, !tbaa !8
  %36 = call i32 @Ivy_ObjIsPi(ptr noundef %35)
  %37 = icmp ne i32 %36, 0
  br i1 %37, label %49, label %38

38:                                               ; preds = %34
  %39 = load ptr, ptr %7, align 8, !tbaa !8
  %40 = call i32 @Ivy_ObjIsConst1(ptr noundef %39)
  %41 = icmp ne i32 %40, 0
  br i1 %41, label %49, label %42

42:                                               ; preds = %38
  %43 = load ptr, ptr %7, align 8, !tbaa !8
  %44 = call i32 @Ivy_ObjRefs(ptr noundef %43)
  %45 = icmp eq i32 %44, 0
  br i1 %45, label %46, label %49

46:                                               ; preds = %42
  %47 = load ptr, ptr %4, align 8, !tbaa !3
  %48 = load ptr, ptr %7, align 8, !tbaa !8
  call void @Ivy_ObjDelete_rec(ptr noundef %47, ptr noundef %48, i32 noundef 1)
  br label %49

49:                                               ; preds = %46, %42, %38, %34
  call void @llvm.lifetime.end.p0(i64 8, ptr %7) #8
  ret void
}

; Function Attrs: inlinehint nounwind uwtable
define internal ptr @Ivy_ObjChild0(ptr noundef %0) #1 {
  %2 = alloca ptr, align 8
  store ptr %0, ptr %2, align 8, !tbaa !8
  %3 = load ptr, ptr %2, align 8, !tbaa !8
  %4 = getelementptr inbounds nuw %struct.Ivy_Obj_t_, ptr %3, i32 0, i32 4
  %5 = load ptr, ptr %4, align 8, !tbaa !19
  ret ptr %5
}

; Function Attrs: inlinehint nounwind uwtable
define internal i32 @Ivy_ObjIsBuf(ptr noundef %0) #1 {
  %2 = alloca ptr, align 8
  store ptr %0, ptr %2, align 8, !tbaa !8
  %3 = load ptr, ptr %2, align 8, !tbaa !8
  %4 = getelementptr inbounds nuw %struct.Ivy_Obj_t_, ptr %3, i32 0, i32 2
  %5 = load i32, ptr %4, align 8
  %6 = and i32 %5, 15
  %7 = icmp eq i32 %6, 7
  %8 = zext i1 %7 to i32
  ret i32 %8
}

; Function Attrs: inlinehint nounwind uwtable
define internal ptr @Ivy_ObjFanin0(ptr noundef %0) #1 {
  %2 = alloca ptr, align 8
  store ptr %0, ptr %2, align 8, !tbaa !8
  %3 = load ptr, ptr %2, align 8, !tbaa !8
  %4 = getelementptr inbounds nuw %struct.Ivy_Obj_t_, ptr %3, i32 0, i32 4
  %5 = load ptr, ptr %4, align 8, !tbaa !19
  %6 = call ptr @Ivy_Regular(ptr noundef %5)
  ret ptr %6
}

; Function Attrs: inlinehint nounwind uwtable
define internal i32 @Ivy_ObjIsPo(ptr noundef %0) #1 {
  %2 = alloca ptr, align 8
  store ptr %0, ptr %2, align 8, !tbaa !8
  %3 = load ptr, ptr %2, align 8, !tbaa !8
  %4 = getelementptr inbounds nuw %struct.Ivy_Obj_t_, ptr %3, i32 0, i32 2
  %5 = load i32, ptr %4, align 8
  %6 = and i32 %5, 15
  %7 = icmp eq i32 %6, 2
  %8 = zext i1 %7 to i32
  ret i32 %8
}

; Function Attrs: nounwind uwtable
define void @Ivy_NodeFixBufferFanins(ptr noundef %0, ptr noundef %1, i32 noundef %2) #0 {
  %4 = alloca ptr, align 8
  %5 = alloca ptr, align 8
  %6 = alloca i32, align 4
  %7 = alloca ptr, align 8
  %8 = alloca ptr, align 8
  %9 = alloca ptr, align 8
  %10 = alloca i32, align 4
  store ptr %0, ptr %4, align 8, !tbaa !3
  store ptr %1, ptr %5, align 8, !tbaa !8
  store i32 %2, ptr %6, align 4, !tbaa !24
  call void @llvm.lifetime.start.p0(i64 8, ptr %7) #8
  call void @llvm.lifetime.start.p0(i64 8, ptr %8) #8
  call void @llvm.lifetime.start.p0(i64 8, ptr %9) #8
  store ptr null, ptr %9, align 8, !tbaa !8
  %11 = load ptr, ptr %5, align 8, !tbaa !8
  %12 = call i32 @Ivy_ObjIsPo(ptr noundef %11)
  %13 = icmp ne i32 %12, 0
  br i1 %13, label %14, label %27

14:                                               ; preds = %3
  %15 = load ptr, ptr %5, align 8, !tbaa !8
  %16 = call ptr @Ivy_ObjFanin0(ptr noundef %15)
  %17 = call i32 @Ivy_ObjIsBuf(ptr noundef %16)
  %18 = icmp ne i32 %17, 0
  br i1 %18, label %20, label %19

19:                                               ; preds = %14
  store i32 1, ptr %10, align 4
  br label %72

20:                                               ; preds = %14
  %21 = load ptr, ptr %5, align 8, !tbaa !8
  %22 = call ptr @Ivy_ObjChild0(ptr noundef %21)
  %23 = call ptr @Ivy_ObjReal(ptr noundef %22)
  store ptr %23, ptr %7, align 8, !tbaa !8
  %24 = load ptr, ptr %4, align 8, !tbaa !3
  %25 = load ptr, ptr %5, align 8, !tbaa !8
  %26 = load ptr, ptr %7, align 8, !tbaa !8
  call void @Ivy_ObjPatchFanin0(ptr noundef %24, ptr noundef %25, ptr noundef %26)
  store i32 1, ptr %10, align 4
  br label %72

27:                                               ; preds = %3
  %28 = load ptr, ptr %5, align 8, !tbaa !8
  %29 = call ptr @Ivy_ObjFanin0(ptr noundef %28)
  %30 = call i32 @Ivy_ObjIsBuf(ptr noundef %29)
  %31 = icmp ne i32 %30, 0
  br i1 %31, label %38, label %32

32:                                               ; preds = %27
  %33 = load ptr, ptr %5, align 8, !tbaa !8
  %34 = call ptr @Ivy_ObjFanin1(ptr noundef %33)
  %35 = call i32 @Ivy_ObjIsBuf(ptr noundef %34)
  %36 = icmp ne i32 %35, 0
  br i1 %36, label %38, label %37

37:                                               ; preds = %32
  store i32 1, ptr %10, align 4
  br label %72

38:                                               ; preds = %32, %27
  %39 = load ptr, ptr %5, align 8, !tbaa !8
  %40 = call ptr @Ivy_ObjChild0(ptr noundef %39)
  %41 = call ptr @Ivy_ObjReal(ptr noundef %40)
  store ptr %41, ptr %7, align 8, !tbaa !8
  %42 = load ptr, ptr %5, align 8, !tbaa !8
  %43 = call ptr @Ivy_ObjChild1(ptr noundef %42)
  %44 = call ptr @Ivy_ObjReal(ptr noundef %43)
  store ptr %44, ptr %8, align 8, !tbaa !8
  %45 = load ptr, ptr %5, align 8, !tbaa !8
  %46 = call i32 @Ivy_ObjIsNode(ptr noundef %45)
  %47 = icmp ne i32 %46, 0
  br i1 %47, label %48, label %55

48:                                               ; preds = %38
  %49 = load ptr, ptr %4, align 8, !tbaa !3
  %50 = load ptr, ptr %7, align 8, !tbaa !8
  %51 = load ptr, ptr %8, align 8, !tbaa !8
  %52 = load ptr, ptr %5, align 8, !tbaa !8
  %53 = call i32 @Ivy_ObjType(ptr noundef %52)
  %54 = call ptr @Ivy_Oper(ptr noundef %49, ptr noundef %50, ptr noundef %51, i32 noundef %53)
  store ptr %54, ptr %9, align 8, !tbaa !8
  br label %67

55:                                               ; preds = %38
  %56 = load ptr, ptr %5, align 8, !tbaa !8
  %57 = call i32 @Ivy_ObjIsLatch(ptr noundef %56)
  %58 = icmp ne i32 %57, 0
  br i1 %58, label %59, label %65

59:                                               ; preds = %55
  %60 = load ptr, ptr %4, align 8, !tbaa !3
  %61 = load ptr, ptr %7, align 8, !tbaa !8
  %62 = load ptr, ptr %5, align 8, !tbaa !8
  %63 = call i32 @Ivy_ObjInit(ptr noundef %62)
  %64 = call ptr @Ivy_Latch(ptr noundef %60, ptr noundef %61, i32 noundef %63)
  store ptr %64, ptr %9, align 8, !tbaa !8
  br label %66

65:                                               ; preds = %55
  br label %66

66:                                               ; preds = %65, %59
  br label %67

67:                                               ; preds = %66, %48
  %68 = load ptr, ptr %4, align 8, !tbaa !3
  %69 = load ptr, ptr %5, align 8, !tbaa !8
  %70 = load ptr, ptr %9, align 8, !tbaa !8
  %71 = load i32, ptr %6, align 4, !tbaa !24
  call void @Ivy_ObjReplace(ptr noundef %68, ptr noundef %69, ptr noundef %70, i32 noundef 1, i32 noundef 0, i32 noundef %71)
  store i32 0, ptr %10, align 4
  br label %72

72:                                               ; preds = %67, %37, %20, %19
  call void @llvm.lifetime.end.p0(i64 8, ptr %9) #8
  call void @llvm.lifetime.end.p0(i64 8, ptr %8) #8
  call void @llvm.lifetime.end.p0(i64 8, ptr %7) #8
  %73 = load i32, ptr %10, align 4
  switch i32 %73, label %75 [
    i32 0, label %74
    i32 1, label %74
  ]

74:                                               ; preds = %72, %72
  ret void

75:                                               ; preds = %72
  unreachable
}