; Function Attrs: nounwind uwtable
define void @Ivy_NodeFixBufferFanins(ptr noundef %0, ptr noundef %1, i32 noundef %2) local_unnamed_addr #0 {
  %4 = getelementptr i8, ptr %1, i64 8
  %.val34 = load i32, ptr %4, align 8
  %5 = and i32 %.val34, 15
  %.not = icmp eq i32 %5, 2
  %6 = getelementptr i8, ptr %1, i64 16
  %.val27 = load ptr, ptr %6, align 8, !tbaa !24
  %7 = ptrtoint ptr %.val27 to i64
  %8 = and i64 %7, -2
  %9 = inttoptr i64 %8 to ptr
  %10 = getelementptr i8, ptr %9, i64 8
  %.val38 = load i32, ptr %10, align 8
  %11 = and i32 %.val38, 15
  %.not40 = icmp eq i32 %11, 7
  br i1 %.not, label %12, label %45

12:                                               ; preds = %3
  br i1 %.not40, label %13, label %Ivy_ObjPatchFanin0.exit

13:                                               ; preds = %12
  %14 = tail call ptr @Ivy_ObjReal(ptr noundef %.val27) #7
  %.val.i = load ptr, ptr %6, align 8, !tbaa !24
  %15 = ptrtoint ptr %.val.i to i64
  %16 = and i64 %15, -2
  %17 = inttoptr i64 %16 to ptr
  %18 = getelementptr inbounds nuw i8, ptr %17, i64 12
  %19 = load i32, ptr %18, align 4, !tbaa !26
  %20 = add nsw i32 %19, -1
  store i32 %20, ptr %18, align 4, !tbaa !26
  %21 = getelementptr inbounds nuw i8, ptr %0, i64 192
  %22 = load i32, ptr %21, align 8, !tbaa !27
  %.not.i = icmp eq i32 %22, 0
  br i1 %.not.i, label %.thread.i, label %29

.thread.i:                                        ; preds = %13
  store ptr %14, ptr %6, align 8, !tbaa !24
  %23 = ptrtoint ptr %14 to i64
  %24 = and i64 %23, -2
  %25 = inttoptr i64 %24 to ptr
  %26 = getelementptr inbounds nuw i8, ptr %25, i64 12
  %27 = load i32, ptr %26, align 4, !tbaa !26
  %28 = add nsw i32 %27, 1
  store i32 %28, ptr %26, align 4, !tbaa !26
  br label %38

29:                                               ; preds = %13
  tail call void @Ivy_ObjDeleteFanout(ptr noundef nonnull %0, ptr noundef nonnull %17, ptr noundef nonnull %1) #7
  %.pre.i = load i32, ptr %21, align 8, !tbaa !27
  %30 = icmp eq i32 %.pre.i, 0
  store ptr %14, ptr %6, align 8, !tbaa !24
  %31 = ptrtoint ptr %14 to i64
  %32 = and i64 %31, -2
  %33 = inttoptr i64 %32 to ptr
  %34 = getelementptr inbounds nuw i8, ptr %33, i64 12
  %35 = load i32, ptr %34, align 4, !tbaa !26
  %36 = add nsw i32 %35, 1
  store i32 %36, ptr %34, align 4, !tbaa !26
  br i1 %30, label %38, label %37

37:                                               ; preds = %29
  tail call void @Ivy_ObjAddFanout(ptr noundef nonnull %0, ptr noundef nonnull %33, ptr noundef nonnull %1) #7
  br label %38

38:                                               ; preds = %37, %29, %.thread.i
  %39 = getelementptr i8, ptr %17, i64 8
  %.val21.i = load i32, ptr %39, align 8
  %40 = and i32 %.val21.i, 15
  %.not24.i = icmp eq i32 %40, 1
  br i1 %.not24.i, label %Ivy_ObjPatchFanin0.exit, label %41

41:                                               ; preds = %38
  %.val22.i = load i32, ptr %17, align 8, !tbaa !20
  %.not25.i = icmp eq i32 %.val22.i, 0
  br i1 %.not25.i, label %Ivy_ObjPatchFanin0.exit, label %42

42:                                               ; preds = %41
  %.val23.i = load i32, ptr %18, align 4, !tbaa !26
  %43 = icmp eq i32 %.val23.i, 0
  br i1 %43, label %44, label %Ivy_ObjPatchFanin0.exit

44:                                               ; preds = %42
  tail call void @Ivy_ObjDelete_rec(ptr noundef nonnull %0, ptr noundef nonnull %17, i32 noundef 1)
  br label %Ivy_ObjPatchFanin0.exit

45:                                               ; preds = %3
  br i1 %.not40, label %53, label %46

46:                                               ; preds = %45
  %47 = getelementptr i8, ptr %1, i64 24
  %.val28 = load ptr, ptr %47, align 8, !tbaa !25
  %48 = ptrtoint ptr %.val28 to i64
  %49 = and i64 %48, -2
  %50 = inttoptr i64 %49 to ptr
  %51 = getelementptr i8, ptr %50, i64 8
  %.val36 = load i32, ptr %51, align 8
  %52 = and i32 %.val36, 15
  %.not42 = icmp eq i32 %52, 7
  br i1 %.not42, label %53, label %Ivy_ObjPatchFanin0.exit

53:                                               ; preds = %46, %45
  %54 = tail call ptr @Ivy_ObjReal(ptr noundef %.val27) #7
  %55 = getelementptr i8, ptr %1, i64 24
  %.val33 = load ptr, ptr %55, align 8, !tbaa !25
  %56 = tail call ptr @Ivy_ObjReal(ptr noundef %.val33) #7
  %.val29 = load i32, ptr %4, align 8
  %57 = and i32 %.val29, 15
  %58 = add nsw i32 %57, -7
  %narrow.i = icmp ult i32 %58, -2
  br i1 %narrow.i, label %61, label %59

59:                                               ; preds = %53
  %60 = tail call ptr @Ivy_Oper(ptr noundef %0, ptr noundef %54, ptr noundef %56, i32 noundef %57) #7
  br label %66

61:                                               ; preds = %53
  %.not43 = icmp eq i32 %57, 4
  br i1 %.not43, label %62, label %66

62:                                               ; preds = %61
  %63 = lshr i32 %.val29, 9
  %64 = and i32 %63, 3
  %65 = tail call ptr @Ivy_Latch(ptr noundef %0, ptr noundef %54, i32 noundef %64) #7
  br label %66

66:                                               ; preds = %62, %61, %59
  %.0 = phi ptr [ %60, %59 ], [ %65, %62 ], [ null, %61 ]
  tail call void @Ivy_ObjReplace(ptr noundef %0, ptr noundef nonnull %1, ptr noundef %.0, i32 noundef 1, i32 noundef 0, i32 noundef %2)
  br label %Ivy_ObjPatchFanin0.exit

Ivy_ObjPatchFanin0.exit:                          ; preds = %44, %42, %41, %38, %46, %12, %66
  ret void
}